(dp0
S'resp'
p1
(dp2
I0
S''
p3
sI1
S'j'
p4
sI2
S'j'
p5
sI3
S'f'
p6
sI4
g3
sI5
g3
sI6
g3
sI7
S'f'
p7
sI8
S'j'
p8
sI9
S'f'
p9
sI10
S'f'
p10
sI11
S'j'
p11
sI12
S'j'
p12
sI13
S'f'
p13
sI14
S'f'
p14
sI15
S'f'
p15
sI16
S'j'
p16
sI17
S'j'
p17
sI18
S'j'
p18
sI19
g3
sI20
S'f'
p19
sI21
S'j'
p20
sI22
S'j'
p21
sI23
S'j'
p22
sI24
S'f'
p23
sI25
S'f'
p24
sI26
S'f'
p25
sI27
S'j'
p26
sI28
S'j'
p27
sI29
S'j'
p28
sI30
S'f'
p29
sI31
S'f'
p30
sI32
g3
sI33
S'j'
p31
sI34
S'j'
p32
sI35
S'j'
p33
sI36
S'j'
p34
sI37
S'f'
p35
sI38
S'f'
p36
sI39
S'f'
p37
sI40
S'f'
p38
sI41
S'f'
p39
sI42
S'f'
p40
sI43
S'j'
p41
sI44
g3
sI45
S'j'
p42
sI46
S'j'
p43
sI47
S'j'
p44
sI48
S'f'
p45
sI49
g3
sI50
S'f'
p46
sI51
S'j'
p47
sI52
S'f'
p48
sI53
S'f'
p49
sI54
S'f'
p50
sI55
g3
sI56
S'j'
p51
sI57
S'j'
p52
sI58
S'f'
p53
sI59
g3
sI60
S'j'
p54
sI61
S'f'
p55
sI62
S'f'
p56
sI63
S'j'
p57
sI64
S'f'
p58
sI65
S'f'
p59
sI66
S'j'
p60
sI67
S'f'
p61
sI68
S'j'
p62
sI69
S'j'
p63
sI70
g3
sI71
S'f'
p64
sI72
S'f'
p65
sI73
g3
sI74
S'j'
p66
sI75
S'f'
p67
sI76
S'f'
p68
sI77
S'j'
p69
sI78
S'f'
p70
sI79
S'j'
p71
sI80
S'f'
p72
sI81
S'f'
p73
sI82
S'j'
p74
sI83
S'f'
p75
sI84
S'f'
p76
sI85
S'j'
p77
sI86
S'j'
p78
sI87
S'j'
p79
sI88
S'f'
p80
sI89
S'f'
p81
sI90
S'f'
p82
sI91
S'f'
p83
sI92
S'j'
p84
sI93
S'j'
p85
sI94
S'f'
p86
sI95
g3
sI96
g3
sI97
S'f'
p87
sI98
S'f'
p88
sI99
g3
sI100
g3
sI101
S'j'
p89
sI102
S'j'
p90
sI103
S'f'
p91
sI104
S'j'
p92
sI105
S'j'
p93
sI106
S'f'
p94
sI107
S'f'
p95
sI108
S'f'
p96
sI109
g3
sI110
S'f'
p97
sI111
S'j'
p98
sI112
S'j'
p99
sI113
S'f'
p100
sI114
S'j'
p101
sI115
g3
sI116
S'j'
p102
sI117
S'f'
p103
sI118
S'f'
p104
sI119
S'j'
p105
sI120
S'f'
p106
sI121
S'j'
p107
sI122
S'j'
p108
sI123
S'j'
p109
sI124
S'j'
p110
sI125
S'j'
p111
sI126
S'j'
p112
sI127
g3
ssS'datestamp'
p113
S'2014-04-30-14_05_11'
p114
sS'cond'
p115
(dp116
I0
cnumpy.core.multiarray
scalar
p117
(cnumpy
dtype
p118
(S'i4'
p119
I0
I1
tp120
Rp121
(I3
S'<'
p122
NNNI-1
I-1
I0
tp123
bS'\x01\x00\x00\x00'
p124
tp125
Rp126
sI1
g117
(g121
S'\x01\x00\x00\x00'
p127
tp128
Rp129
sI2
g117
(g121
S'\x01\x00\x00\x00'
p130
tp131
Rp132
sI3
g117
(g121
S'\x00\x00\x00\x00'
p133
tp134
Rp135
sI4
g117
(g121
S'\x03\x00\x00\x00'
p136
tp137
Rp138
sI5
g117
(g121
S'\x03\x00\x00\x00'
p139
tp140
Rp141
sI6
g117
(g121
S'\x02\x00\x00\x00'
p142
tp143
Rp144
sI7
g117
(g121
S'\x00\x00\x00\x00'
p145
tp146
Rp147
sI8
g117
(g121
S'\x01\x00\x00\x00'
p148
tp149
Rp150
sI9
g117
(g121
S'\x00\x00\x00\x00'
p151
tp152
Rp153
sI10
g117
(g121
S'\x00\x00\x00\x00'
p154
tp155
Rp156
sI11
g117
(g121
S'\x01\x00\x00\x00'
p157
tp158
Rp159
sI12
g117
(g121
S'\x01\x00\x00\x00'
p160
tp161
Rp162
sI13
g117
(g121
S'\x00\x00\x00\x00'
p163
tp164
Rp165
sI14
g117
(g121
S'\x00\x00\x00\x00'
p166
tp167
Rp168
sI15
g117
(g121
S'\x00\x00\x00\x00'
p169
tp170
Rp171
sI16
g117
(g121
S'\x01\x00\x00\x00'
p172
tp173
Rp174
sI17
g117
(g121
S'\x01\x00\x00\x00'
p175
tp176
Rp177
sI18
g117
(g121
S'\x03\x00\x00\x00'
p178
tp179
Rp180
sI19
g117
(g121
S'\x03\x00\x00\x00'
p181
tp182
Rp183
sI20
g117
(g121
S'\x00\x00\x00\x00'
p184
tp185
Rp186
sI21
g117
(g121
S'\x03\x00\x00\x00'
p187
tp188
Rp189
sI22
g117
(g121
S'\x01\x00\x00\x00'
p190
tp191
Rp192
sI23
g117
(g121
S'\x01\x00\x00\x00'
p193
tp194
Rp195
sI24
g117
(g121
S'\x00\x00\x00\x00'
p196
tp197
Rp198
sI25
g117
(g121
S'\x00\x00\x00\x00'
p199
tp200
Rp201
sI26
g117
(g121
S'\x00\x00\x00\x00'
p202
tp203
Rp204
sI27
g117
(g121
S'\x01\x00\x00\x00'
p205
tp206
Rp207
sI28
g117
(g121
S'\x01\x00\x00\x00'
p208
tp209
Rp210
sI29
g117
(g121
S'\x01\x00\x00\x00'
p211
tp212
Rp213
sI30
g117
(g121
S'\x00\x00\x00\x00'
p214
tp215
Rp216
sI31
g117
(g121
S'\x02\x00\x00\x00'
p217
tp218
Rp219
sI32
g117
(g121
S'\x02\x00\x00\x00'
p220
tp221
Rp222
sI33
g117
(g121
S'\x03\x00\x00\x00'
p223
tp224
Rp225
sI34
g117
(g121
S'\x01\x00\x00\x00'
p226
tp227
Rp228
sI35
g117
(g121
S'\x01\x00\x00\x00'
p229
tp230
Rp231
sI36
g117
(g121
S'\x01\x00\x00\x00'
p232
tp233
Rp234
sI37
g117
(g121
S'\x00\x00\x00\x00'
p235
tp236
Rp237
sI38
g117
(g121
S'\x00\x00\x00\x00'
p238
tp239
Rp240
sI39
g117
(g121
S'\x00\x00\x00\x00'
p241
tp242
Rp243
sI40
g117
(g121
S'\x00\x00\x00\x00'
p244
tp245
Rp246
sI41
g117
(g121
S'\x00\x00\x00\x00'
p247
tp248
Rp249
sI42
g117
(g121
S'\x02\x00\x00\x00'
p250
tp251
Rp252
sI43
g117
(g121
S'\x03\x00\x00\x00'
p253
tp254
Rp255
sI44
g117
(g121
S'\x03\x00\x00\x00'
p256
tp257
Rp258
sI45
g117
(g121
S'\x01\x00\x00\x00'
p259
tp260
Rp261
sI46
g117
(g121
S'\x01\x00\x00\x00'
p262
tp263
Rp264
sI47
g117
(g121
S'\x01\x00\x00\x00'
p265
tp266
Rp267
sI48
g117
(g121
S'\x00\x00\x00\x00'
p268
tp269
Rp270
sI49
g117
(g121
S'\x03\x00\x00\x00'
p271
tp272
Rp273
sI50
g117
(g121
S'\x00\x00\x00\x00'
p274
tp275
Rp276
sI51
g117
(g121
S'\x01\x00\x00\x00'
p277
tp278
Rp279
sI52
g117
(g121
S'\x00\x00\x00\x00'
p280
tp281
Rp282
sI53
g117
(g121
S'\x02\x00\x00\x00'
p283
tp284
Rp285
sI54
g117
(g121
S'\x00\x00\x00\x00'
p286
tp287
Rp288
sI55
g117
(g121
S'\x00\x00\x00\x00'
p289
tp290
Rp291
sI56
g117
(g121
S'\x01\x00\x00\x00'
p292
tp293
Rp294
sI57
g117
(g121
S'\x01\x00\x00\x00'
p295
tp296
Rp297
sI58
g117
(g121
S'\x00\x00\x00\x00'
p298
tp299
Rp300
sI59
g117
(g121
S'\x03\x00\x00\x00'
p301
tp302
Rp303
sI60
g117
(g121
S'\x01\x00\x00\x00'
p304
tp305
Rp306
sI61
g117
(g121
S'\x00\x00\x00\x00'
p307
tp308
Rp309
sI62
g117
(g121
S'\x00\x00\x00\x00'
p310
tp311
Rp312
sI63
g117
(g121
S'\x01\x00\x00\x00'
p313
tp314
Rp315
sI64
g117
(g121
S'\x00\x00\x00\x00'
p316
tp317
Rp318
sI65
g117
(g121
S'\x00\x00\x00\x00'
p319
tp320
Rp321
sI66
g117
(g121
S'\x01\x00\x00\x00'
p322
tp323
Rp324
sI67
g117
(g121
S'\x00\x00\x00\x00'
p325
tp326
Rp327
sI68
g117
(g121
S'\x01\x00\x00\x00'
p328
tp329
Rp330
sI69
g117
(g121
S'\x03\x00\x00\x00'
p331
tp332
Rp333
sI70
g117
(g121
S'\x03\x00\x00\x00'
p334
tp335
Rp336
sI71
g117
(g121
S'\x00\x00\x00\x00'
p337
tp338
Rp339
sI72
g117
(g121
S'\x00\x00\x00\x00'
p340
tp341
Rp342
sI73
g117
(g121
S'\x03\x00\x00\x00'
p343
tp344
Rp345
sI74
g117
(g121
S'\x01\x00\x00\x00'
p346
tp347
Rp348
sI75
g117
(g121
S'\x00\x00\x00\x00'
p349
tp350
Rp351
sI76
g117
(g121
S'\x00\x00\x00\x00'
p352
tp353
Rp354
sI77
g117
(g121
S'\x01\x00\x00\x00'
p355
tp356
Rp357
sI78
g117
(g121
S'\x00\x00\x00\x00'
p358
tp359
Rp360
sI79
g117
(g121
S'\x03\x00\x00\x00'
p361
tp362
Rp363
sI80
g117
(g121
S'\x02\x00\x00\x00'
p364
tp365
Rp366
sI81
g117
(g121
S'\x00\x00\x00\x00'
p367
tp368
Rp369
sI82
g117
(g121
S'\x01\x00\x00\x00'
p370
tp371
Rp372
sI83
g117
(g121
S'\x00\x00\x00\x00'
p373
tp374
Rp375
sI84
g117
(g121
S'\x00\x00\x00\x00'
p376
tp377
Rp378
sI85
g117
(g121
S'\x01\x00\x00\x00'
p379
tp380
Rp381
sI86
g117
(g121
S'\x01\x00\x00\x00'
p382
tp383
Rp384
sI87
g117
(g121
S'\x01\x00\x00\x00'
p385
tp386
Rp387
sI88
g117
(g121
S'\x00\x00\x00\x00'
p388
tp389
Rp390
sI89
g117
(g121
S'\x00\x00\x00\x00'
p391
tp392
Rp393
sI90
g117
(g121
S'\x00\x00\x00\x00'
p394
tp395
Rp396
sI91
g117
(g121
S'\x00\x00\x00\x00'
p397
tp398
Rp399
sI92
g117
(g121
S'\x01\x00\x00\x00'
p400
tp401
Rp402
sI93
g117
(g121
S'\x01\x00\x00\x00'
p403
tp404
Rp405
sI94
g117
(g121
S'\x02\x00\x00\x00'
p406
tp407
Rp408
sI95
g117
(g121
S'\x03\x00\x00\x00'
p409
tp410
Rp411
sI96
g117
(g121
S'\x02\x00\x00\x00'
p412
tp413
Rp414
sI97
g117
(g121
S'\x00\x00\x00\x00'
p415
tp416
Rp417
sI98
g117
(g121
S'\x02\x00\x00\x00'
p418
tp419
Rp420
sI99
g117
(g121
S'\x02\x00\x00\x00'
p421
tp422
Rp423
sI100
g117
(g121
S'\x02\x00\x00\x00'
p424
tp425
Rp426
sI101
g117
(g121
S'\x01\x00\x00\x00'
p427
tp428
Rp429
sI102
g117
(g121
S'\x01\x00\x00\x00'
p430
tp431
Rp432
sI103
g117
(g121
S'\x00\x00\x00\x00'
p433
tp434
Rp435
sI104
g117
(g121
S'\x01\x00\x00\x00'
p436
tp437
Rp438
sI105
g117
(g121
S'\x01\x00\x00\x00'
p439
tp440
Rp441
sI106
g117
(g121
S'\x02\x00\x00\x00'
p442
tp443
Rp444
sI107
g117
(g121
S'\x00\x00\x00\x00'
p445
tp446
Rp447
sI108
g117
(g121
S'\x02\x00\x00\x00'
p448
tp449
Rp450
sI109
g117
(g121
S'\x02\x00\x00\x00'
p451
tp452
Rp453
sI110
g117
(g121
S'\x00\x00\x00\x00'
p454
tp455
Rp456
sI111
g117
(g121
S'\x01\x00\x00\x00'
p457
tp458
Rp459
sI112
g117
(g121
S'\x01\x00\x00\x00'
p460
tp461
Rp462
sI113
g117
(g121
S'\x00\x00\x00\x00'
p463
tp464
Rp465
sI114
g117
(g121
S'\x03\x00\x00\x00'
p466
tp467
Rp468
sI115
g117
(g121
S'\x00\x00\x00\x00'
p469
tp470
Rp471
sI116
g117
(g121
S'\x01\x00\x00\x00'
p472
tp473
Rp474
sI117
g117
(g121
S'\x00\x00\x00\x00'
p475
tp476
Rp477
sI118
g117
(g121
S'\x00\x00\x00\x00'
p478
tp479
Rp480
sI119
g117
(g121
S'\x01\x00\x00\x00'
p481
tp482
Rp483
sI120
g117
(g121
S'\x02\x00\x00\x00'
p484
tp485
Rp486
sI121
g117
(g121
S'\x01\x00\x00\x00'
p487
tp488
Rp489
sI122
g117
(g121
S'\x01\x00\x00\x00'
p490
tp491
Rp492
sI123
g117
(g121
S'\x01\x00\x00\x00'
p493
tp494
Rp495
sI124
g117
(g121
S'\x01\x00\x00\x00'
p496
tp497
Rp498
sI125
g117
(g121
S'\x01\x00\x00\x00'
p499
tp500
Rp501
sI126
g117
(g121
S'\x01\x00\x00\x00'
p502
tp503
Rp504
sI127
g117
(g121
S'\x02\x00\x00\x00'
p505
tp506
Rp507
ssS'onset_file'
p508
V/Users/church/Desktop/sst/onsetlists_sst/sst_list1.txt
p509
sS'expt_title'
p510
S'Stop Signal Task'
p511
sS'rt'
p512
(dp513
I1
F0.3559989929199219
sI2
F0.42684412002563477
sI3
F0.4350271224975586
sI7
F0.5030999183654785
sI8
F0.3712730407714844
sI9
F0.36809611320495605
sI10
F0.47618889808654785
sI11
F0.4086880683898926
sI12
F0.511685848236084
sI13
F0.387768030166626
sI14
F0.3925960063934326
sI15
F0.4235990047454834
sI16
F0.3716299533843994
sI17
F0.37070703506469727
sI18
F0.3818850517272949
sI20
F0.6176319122314453
sI21
F0.42954111099243164
sI22
F0.9006679058074951
sI23
F0.5311369895935059
sI24
F0.33592891693115234
sI25
F0.42835187911987305
sI26
F0.4091360569000244
sI27
F0.42141294479370117
sI28
F0.3779909610748291
sI29
F0.5587289333343506
sI30
F0.3947792053222656
sI31
F0.41787099838256836
sI33
F0.402911901473999
sI34
F0.44172191619873047
sI35
F0.39035701751708984
sI36
F0.3545560836791992
sI37
F0.3774838447570801
sI38
F0.384627103805542
sI39
F0.36466193199157715
sI40
F0.36376118659973145
sI41
F0.3523430824279785
sI42
F0.38846611976623535
sI43
F0.4733419418334961
sI45
F0.665355920791626
sI46
F0.4296867847442627
sI47
F0.3698899745941162
sI48
F0.5208628177642822
sI50
F0.48172903060913086
sI51
F0.5422260761260986
sI52
F0.43502306938171387
sI53
F0.5218229293823242
sI54
F0.5334970951080322
sI56
F0.4724588394165039
sI57
F0.48925209045410156
sI58
F0.44582414627075195
sI60
F0.6163170337677002
sI61
F0.7646980285644531
sI62
F0.6408300399780273
sI63
F0.3494119644165039
sI64
F0.45685791969299316
sI65
F0.4077141284942627
sI66
F0.45238304138183594
sI67
F0.4964921474456787
sI68
F0.45322203636169434
sI69
F0.4763360023498535
sI71
F0.39397192001342773
sI72
F0.360152006149292
sI74
F0.5860209465026855
sI75
F0.5704748630523682
sI76
F0.41735291481018066
sI77
F0.5100979804992676
sI78
F0.34609389305114746
sI79
F0.38770008087158203
sI80
F0.4579770565032959
sI81
F0.7266499996185303
sI82
F0.491487979888916
sI83
F0.519477128982544
sI84
F0.3322181701660156
sI85
F0.3928520679473877
sI86
F0.47931408882141113
sI87
F0.46010398864746094
sI88
F0.36077404022216797
sI89
F0.4259519577026367
sI90
F0.5183770656585693
sI91
F0.634833812713623
sI92
F0.4428679943084717
sI93
F0.4757368564605713
sI94
F0.5566279888153076
sI97
F0.5349769592285156
sI98
F0.4765441417694092
sI101
F0.5129098892211914
sI102
F0.49315309524536133
sI103
F0.5299909114837646
sI104
F0.42994117736816406
sI105
F0.3788018226623535
sI106
F0.425739049911499
sI107
F0.6185600757598877
sI108
F0.3695530891418457
sI110
F0.5464739799499512
sI111
F0.4814341068267822
sI112
F0.4935109615325928
sI113
F0.5061547756195068
sI114
F0.33721184730529785
sI116
F0.289395809173584
sI117
F0.3655509948730469
sI118
F0.47384095191955566
sI119
F0.41454100608825684
sI120
F0.3917379379272461
sI121
F0.27594590187072754
sI122
F0.6372270584106445
sI123
F0.5214958190917969
sI124
F0.39826488494873047
sI125
F0.7703101634979248
sI126
F0.35095906257629395
ssS'stim'
p514
(dp515
I0
S'>'
p516
sI1
g516
sI2
g516
sI3
S'<'
p517
sI4
g516
sI5
g516
sI6
g517
sI7
g517
sI8
g516
sI9
g517
sI10
g517
sI11
g516
sI12
g516
sI13
g517
sI14
g517
sI15
g517
sI16
g516
sI17
g516
sI18
g516
sI19
g516
sI20
g517
sI21
g516
sI22
g516
sI23
g516
sI24
g517
sI25
g517
sI26
g517
sI27
g516
sI28
g516
sI29
g516
sI30
g517
sI31
g517
sI32
g517
sI33
g516
sI34
g516
sI35
g516
sI36
g516
sI37
g517
sI38
g517
sI39
g517
sI40
g517
sI41
g517
sI42
g517
sI43
g516
sI44
g516
sI45
g516
sI46
g516
sI47
g516
sI48
g517
sI49
g516
sI50
g517
sI51
g516
sI52
g517
sI53
g517
sI54
g517
sI55
g517
sI56
g516
sI57
g516
sI58
g517
sI59
g516
sI60
g516
sI61
g517
sI62
g517
sI63
g516
sI64
g517
sI65
g517
sI66
g516
sI67
g517
sI68
g516
sI69
g516
sI70
g516
sI71
g517
sI72
g517
sI73
g516
sI74
g516
sI75
g517
sI76
g517
sI77
g516
sI78
g517
sI79
g516
sI80
g517
sI81
g517
sI82
g516
sI83
g517
sI84
g517
sI85
g516
sI86
g516
sI87
g516
sI88
g517
sI89
g517
sI90
g517
sI91
g517
sI92
g516
sI93
g516
sI94
g517
sI95
g516
sI96
g517
sI97
g517
sI98
g517
sI99
g517
sI100
g517
sI101
g516
sI102
g516
sI103
g517
sI104
g516
sI105
g516
sI106
g517
sI107
g517
sI108
g517
sI109
g517
sI110
g517
sI111
g516
sI112
g516
sI113
g517
sI114
g516
sI115
g517
sI116
g516
sI117
g517
sI118
g517
sI119
g516
sI120
g517
sI121
g516
sI122
g516
sI123
g516
sI124
g516
sI125
g516
sI126
g516
sI127
g517
ssS'start_time'
p518
F1.9073486328125e-06
sS'script'
p519
(lp520
S'#!/usr/bin/env python\r\n'
p521
aS'"""\r\n'
p522
aS'sst.py - code to run the stop signal task\r\n'
p523
aS'with visual stop signal\r\n'
p524
aS'for the reading remediation study\r\n'
p525
aS'\r\n'
p526
aS'"""\r\n'
p527
aS'\r\n'
p528
aS'from psychopy import visual, core, event, logging,gui\r\n'
p529
aS'import numpy as N\r\n'
p530
aS'import pickle\r\n'
p531
aS'import datetime\r\n'
p532
aS'import sys\r\n'
p533
aS'import os\r\n'
p534
aS'import inspect\r\n'
p535
aS'import hashlib\r\n'
p536
aS'from socket import gethostname\r\n'
p537
aS'\r\n'
p538
aS'from exptutils import *\r\n'
p539
aS'\r\n'
p540
aS'# study-specific routines\r\n'
p541
aS'\r\n'
p542
aS'def read_onsets(parfile):\r\n'
p543
aS'    f=open(parfile)\r\n'
p544
aS'    par={}\r\n'
p545
aS"    par['onsets']=[]\r\n"
p546
aS"    par['cond']=[]\r\n"
p547
aS'    lines=f.readlines()\r\n'
p548
aS'    for i in range(len(lines)):\r\n'
p549
aS'        l_s=lines[i].strip().split()\r\n'
p550
aS"        par['onsets'].append(float(l_s[0]))\r\n"
p551
aS"        par['cond'].append(int(l_s[1]))\r\n"
p552
aS'    f.close()\r\n'
p553
aS'    return par\r\n'
p554
aS'\r\n'
p555
aS'def read_optseq(parfile):\r\n'
p556
aS'    f=open(parfile)\r\n'
p557
aS'    par={}\r\n'
p558
aS"    par['onsets']=[]\r\n"
p559
aS"    par['cond']=[]\r\n"
p560
aS"    par['duration']=[]\r\n"
p561
aS"    par['condlabel']=[]\r\n"
p562
aS'    lines=f.readlines()\r\n'
p563
aS'    for i in range(len(lines)):\r\n'
p564
aS'        l_s=lines[i].strip().split()\r\n'
p565
aS"        if l_s[1]=='0':   # skip null events\r\n"
p566
aS'            pass\r\n'
p567
aS'        else:\r\n'
p568
aS"            par['onsets'].append(float(l_s[0]))\r\n"
p569
aS"            par['cond'].append(int(l_s[1]))\r\n"
p570
aS"            par['duration'].append(float(l_s[2]))\r\n"
p571
aS"            par['condlabel'].append(l_s[4])\r\n"
p572
aS'    f.close()\r\n'
p573
aS'    return par\r\n'
p574
aS'\r\n'
p575
aS'# set study-specific variables\r\n'
p576
aS'\r\n'
p577
aS"expt_title='Stop Signal Task'\r\n"
p578
aS'ssd_delta=0.05\r\n'
p579
aS'ssd_start=0.250\r\n'
p580
aS'stimdur=1.0 # stimulus duration\r\n'
p581
aS'isi=1.0    # inter-stimulus interval\r\n'
p582
aS'verbose=True\r\n'
p583
aS'version=0.2\r\n'
p584
aS"trigger_key='5'\r\n"
p585
aS'discard_time_to_wait=0.0\r\n'
p586
aS'fullscr=True  # change to True for full screen display\r\n'
p587
aS'total_duration=360.0\r\n'
p588
aS'\r\n'
p589
aS'# initialize subdata dictionary\r\n'
p590
aS'# this stores all of the info about the study\r\n'
p591
aS'subdata={}\r\n'
p592
aS"subdata['completed']=0\r\n"
p593
aS"subdata['cwd']=os.getcwd()\r\n"
p594
aS"subdata['hostname']=gethostname()\r\n"
p595
aS'# save a copy of the script in the data file\r\n'
p596
aS'scriptfile= inspect.getfile(inspect.currentframe())\r\n'
p597
aS'f=open(scriptfile)\r\n'
p598
aS"subdata['script']=f.readlines()\r\n"
p599
aS'f.close()\r\n'
p600
aS'clock=core.Clock()\r\n'
p601
aS'datestamp=datetime.datetime.now().strftime("%Y-%m-%d-%H_%M_%S")\r\n'
p602
aS"subdata['datestamp']=datestamp\r\n"
p603
aS"subdata['expt_title']=expt_title\r\n"
p604
aS"subdata['onsetdir']=os.path.join(os.getcwd(),'onsetlists_sst')\r\n"
p605
aS'\r\n'
p606
aS'# stimulus lists are in files in directory called "stimlists"\r\n'
p607
aS'\r\n'
p608
aS"#stimfiles=get_lists_from_directory('stimlists')\r\n"
p609
aS"onsetfiles=get_lists_from_directory(subdata['onsetdir'])\r\n"
p610
aS'\r\n'
p611
aS'# read in variables from user dialog\r\n'
p612
aS'\r\n'
p613
aS"info = {'subcode':'', 'ExpVersion': version, 'Site': ['Houston', 'Austin'],'Simulated rt (secs)':'','Onset file':onsetfiles}\r\n"
p614
aS"#,'Stimulus file': stimfiles,'Onset file':onsetfiles}\r\n"
p615
aS'\r\n'
p616
aS"info=get_info_from_dialog(info,expt_title,fixed=['ExpVersion'])\r\n"
p617
aS'if info==[]:\r\n'
p618
aS'    shut_down_cleanly(subdata,win)\r\n'
p619
aS"while info['subcode']=='':\r\n"
p620
aS"    print 'must enter a valid subject code!'\r\n"
p621
aS"    info=get_info_from_dialog(info,expt_title,fixed=['ExpVersion'])\r\n"
p622
aS'    if info==[]:\r\n'
p623
aS'        shut_down_cleanly(subdata,win)\r\n'
p624
aS'\r\n'
p625
aS'# set up logging information\r\n'
p626
aS"subcode=info['subcode']\r\n"
p627
aS'logging.console.setLevel(logging.INFO)\r\n'
p628
aS"logging.LogFile('Output/%s_%s_%s.log'%(subcode,expt_title.replace(' ','_'),datestamp),level=logging.INFO)\r\n"
p629
aS'\r\n'
p630
aS'\r\n'
p631
aS'# load the onsets\r\n'
p632
aS"print 'loading onset list: %s'%info['Onset file']\r\n"
p633
aS"subdata['onset_file']=os.path.join(subdata['onsetdir'],info['Onset file'])\r\n"
p634
aS"trialinfo=read_onsets(subdata['onset_file'])\r\n"
p635
aS"onsets=trialinfo['onsets']\r\n"
p636
aS"cond=N.array(trialinfo['cond'])-1\r\n"
p637
aS'\r\n'
p638
aS'# set up the subdata dictionary\r\n'
p639
aS'# which is used to store all of the data\r\n'
p640
aS"subdata['info']=info\r\n"
p641
aS"subdata['onsets']={}\r\n"
p642
aS"subdata['resp']={}\r\n"
p643
aS"subdata['rt']={}\r\n"
p644
aS"subdata['stimons']={}\r\n"
p645
aS"subdata['stim']={}\r\n"
p646
aS"subdata['cond']={}\r\n"
p647
aS'\r\n'
p648
aS"subdata['ssdtime']={}\r\n"
p649
aS"subdata['succstop']={}\r\n"
p650
aS"subdata['stoptrial']={}\r\n"
p651
aS"subdata['ssd']={}\r\n"
p652
aS"subdata['trigger_times']=[]\r\n"
p653
aS'\r\n'
p654
aS"subdata['simssrt']=0.35\r\n"
p655
aS"if info['Simulated rt (secs)']=='':\r\n"
p656
aS"    subdata['simulate_response']=0.0\r\n"
p657
aS'else:\r\n'
p658
aS"    subdata['simulate_response']=float(info['Simulated rt (secs)'])  # set to nonzero to generate simulated responses with this mean RT\r\n"
p659
aS'\r\n'
p660
aS'# set up the window \r\n'
p661
aS'win=visual.Window([800,600],fullscr=fullscr)\r\n'
p662
aS"win.setColor('grey')\r\n"
p663
aS'win.flip()\r\n'
p664
aS'win.flip()\r\n'
p665
aS'\r\n'
p666
aS'# wait for trigger or start key\r\n'
p667
aS'event.clearEvents()\r\n'
p668
aS"if subdata['simulate_response']>0:\r\n"
p669
aS"    message=visual.TextStim(win, text='SIMULATION MODE: Waiting for trigger (or press s)')\r\n"
p670
aS'else:\r\n'
p671
aS"    message=visual.TextStim(win, text='Waiting for trigger (or press s)')\r\n"
p672
aS"left_arrow=visual.ImageStim(win,image='L_arrow.png',size=0.4)\r\n"
p673
aS"right_arrow=visual.ImageStim(win,image='R_arrow.png',size=0.4)\r\n"
p674
aS'message.setHeight(.1)\r\n'
p675
aS'\r\n'
p676
aS'message.setAutoDraw(False) #automatically draw every frame\r\n'
p677
aS'left_arrow.setAutoDraw(False)\r\n'
p678
aS'right_arrow.setAutoDraw(False)\r\n'
p679
aS'\r\n'
p680
aS'message.draw()\r\n'
p681
aS'win.flip()\r\n'
p682
aS'\r\n'
p683
aS'start=False\r\n'
p684
aS'while start==False:\r\n'
p685
aS'    k=event.waitKeys()\r\n'
p686
aS"    if k[0]=='s' or k[0]==trigger_key:\r\n"
p687
aS'        start=True\r\n'
p688
aS"        message.setText('')\r\n"
p689
aS'        message.draw()\r\n'
p690
aS'        win.flip()\r\n'
p691
aS'        if discard_time_to_wait>0:\r\n'
p692
aS'            core.wait(discard_time_to_wait)\r\n'
p693
aS"    if k[0]=='q':\r\n"
p694
aS'        shut_down_cleanly(subdata,win)\r\n'
p695
aS'\r\n'
p696
aS'# set stimulus size for stop task\r\n'
p697
aS'message.setHeight(0.8)\r\n'
p698
aS'\r\n'
p699
aS'# loop through blocks/trials\r\n'
p700
aS'\r\n'
p701
aS'SSD=ssd_start\r\n'
p702
aS'trialctr=0\r\n'
p703
aS'simresp=True\r\n'
p704
aS'clock.reset()\r\n'
p705
aS'\r\n'
p706
aS'#run the trials\r\n'
p707
aS"subdata['start_time']=clock.getTime()\r\n"
p708
aS'keep_going=1\r\n'
p709
aS'\r\n'
p710
aS'for trialctr in range(len(onsets)):\r\n'
p711
aS'\r\n'
p712
aS'        if keep_going==0:\r\n'
p713
aS'            shut_down_cleanly(subdata,win)\r\n'
p714
aS"        subdata['onsets'][trialctr]=onsets[trialctr]\r\n"
p715
aS"        subdata['cond'][trialctr]=cond[trialctr]\r\n"
p716
aS'\r\n'
p717
aS'        if cond[trialctr]==0 or cond[trialctr]==2:\r\n'
p718
aS"            subdata['stim'][trialctr]='<'\r\n"
p719
aS'            left_arrow.draw()\r\n'
p720
aS'        else:\r\n'
p721
aS"            subdata['stim'][trialctr]='>'\r\n"
p722
aS'            right_arrow.draw()\r\n'
p723
aS'            \r\n'
p724
aS'        # wait for the onset time for the next stimulus\r\n'
p725
aS'        while clock.getTime() < onsets[trialctr]:\r\n'
p726
aS'            pass\r\n'
p727
aS'        win.flip()\r\n'
p728
aS"        subdata['stimons'][trialctr]=clock.getTime()\r\n"
p729
aS"        subdata['resp'][trialctr]=''  # set empty response for all trials as default\r\n"
p730
aS"        subdata['stoptrial'][trialctr]=int(cond[trialctr]>1)\r\n"
p731
aS'\r\n'
p732
aS"        if subdata['simulate_response']>0:\r\n"
p733
aS"            simrt=N.random.randn()*0.05 + subdata['simulate_response']\r\n"
p734
aS"            print 'simrt: ',simrt\r\n"
p735
aS"            if subdata['stoptrial'][trialctr]==1:\r\n"
p736
aS"                sim_succstop=simrt>(SSD + subdata['simssrt'])\r\n"
p737
aS'            else:\r\n'
p738
aS'                sim_succstop=False\r\n'
p739
aS'        else:\r\n'
p740
aS'            simrt = 100000000.0\r\n'
p741
aS'        # look for response and/or end of trial\r\n'
p742
aS'        event.clearEvents()\r\n'
p743
aS'        thisResp=None\r\n'
p744
aS'        stopped=None\r\n'
p745
aS'\r\n'
p746
aS"        while clock.getTime() < (subdata['stimons'][trialctr] + stimdur):\r\n"
p747
aS"            if subdata['stoptrial'][trialctr]==1 and stopped==None and clock.getTime() > (subdata['stimons'][trialctr] + SSD):\r\n"
p748
aS'                stopped=1\r\n'
p749
aS'                if cond[trialctr]==0 or cond[trialctr]==2:\r\n'
p750
aS'                    left_arrow.draw()\r\n'
p751
aS'                else:\r\n'
p752
aS'                    right_arrow.draw()\r\n'
p753
aS"                message.setText('X')\r\n"
p754
aS"                message.setColor('red')\r\n"
p755
aS' \t\tmessage.setHeight(0.4)\r\n'
p756
aS'                message.draw()\r\n'
p757
aS'                win.flip()\r\n'
p758
aS"                subdata['ssdtime'][trialctr]=clock.getTime() - subdata['stimons'][trialctr]\r\n"
p759
aS"                subdata['ssd'][trialctr]=SSD\r\n"
p760
aS'\r\n'
p761
aS'            if thisResp==None:\r\n'
p762
aS'                allkeys=event.getKeys()\r\n'
p763
aS'                if allkeys:\r\n'
p764
aS"                    if allkeys[0]=='q':\r\n"
p765
aS'                        keep_going=0\r\n'
p766
aS"                        subdata['broke_on_trial']=trialctr\r\n"
p767
aS'                        break\r\n'
p768
aS"                    elif allkeys[0]=='5':  # trigger\r\n"
p769
aS"                        subdata['trigger_times'].append(clock.getTime())\r\n"
p770
aS'                    else:\r\n'
p771
aS'\r\n'
p772
aS"                        subdata['rt'][trialctr]=clock.getTime() - subdata['stimons'][trialctr]\r\n"
p773
aS"                        subdata['resp'][trialctr]=allkeys[0]\r\n"
p774
aS"                        DATA='RESPONSE: %s (%f)'%(subdata['resp'][trialctr],subdata['rt'][trialctr])\r\n"
p775
aS'                        logging.data(DATA)\r\n'
p776
aS'                        logging.flush()\r\n'
p777
aS'                        if verbose:\r\n'
p778
aS'                            print DATA\r\n'
p779
aS'                        thisResp=1\r\n'
p780
aS'                # create simulated data if called for\r\n'
p781
aS"                elif clock.getTime() > (subdata['stimons'][trialctr] + simrt) and sim_succstop==False:\r\n"
p782
aS"                    subdata['rt'][trialctr]=clock.getTime() - subdata['stimons'][trialctr]\r\n"
p783
aS"                    subdata['resp'][trialctr]=subdata['stim'][trialctr]\r\n"
p784
aS"                    DATA='RESPONSE: %s (%f)'%(subdata['resp'][trialctr],subdata['rt'][trialctr])\r\n"
p785
aS'                    logging.data(DATA)\r\n'
p786
aS'                    logging.flush()\r\n'
p787
aS'                    if verbose:\r\n'
p788
aS'                        print DATA\r\n'
p789
aS'                    thisResp=1\r\n'
p790
aS'\r\n'
p791
aS"        if subdata['stoptrial'][trialctr]==1:\r\n"
p792
aS"            if subdata['resp'][trialctr]=='':\r\n"
p793
aS"                subdata['succstop'][trialctr]=1\r\n"
p794
aS'                SSD+=ssd_delta\r\n'
p795
aS'                if SSD>stimdur:\r\n'
p796
aS"                    print 'SSD>stimdur, there must be a problem'\r\n"
p797
aS'                    SSD=stimdur\r\n'
p798
aS"                print 'succ stop: adjusting SSD to %f'%SSD\r\n"
p799
aS'            else:\r\n'
p800
aS"                subdata['succstop'][trialctr]=0\r\n"
p801
aS'                SSD-=ssd_delta\r\n'
p802
aS'                if SSD<0.0:\r\n'
p803
aS"                    print 'SSD<0, there must be a problem'\r\n"
p804
aS'                    SSD=0.0\r\n'
p805
aS"                print 'failed stop: adjusting SSD to %f'%SSD\r\n"
p806
aS'                \r\n'
p807
aS'        trialctr+=1\r\n'
p808
aS"        message.setText('')\r\n"
p809
aS'        message.draw()\r\n'
p810
aS'        win.flip()\r\n'
p811
aS'    \r\n'
p812
aS'while clock.getTime() < total_duration:\r\n'
p813
aS'    pass\r\n'
p814
aS'\r\n'
p815
aS"subdata['finish_time']=clock.getTime()\r\n"
p816
aS'\r\n'
p817
aS'# close down and save data\r\n'
p818
aS"subdata['completed']=1\r\n"
p819
aS'shut_down_cleanly(subdata,win)\r\n'
p820
aS'event.clearEvents()\r\n'
p821
aS'\r\n'
p822
aS'\r\n'
p823
asS'onsets'
p824
(dp825
I0
F0.0
sI1
F2.0
sI2
F5.0
sI3
F12.0
sI4
F14.0
sI5
F16.0
sI6
F18.0
sI7
F21.0
sI8
F23.0
sI9
F25.0
sI10
F34.0
sI11
F36.0
sI12
F39.0
sI13
F41.0
sI14
F43.0
sI15
F46.0
sI16
F48.0
sI17
F51.0
sI18
F56.0
sI19
F58.0
sI20
F61.0
sI21
F63.0
sI22
F66.0
sI23
F69.0
sI24
F71.0
sI25
F73.0
sI26
F75.0
sI27
F77.0
sI28
F79.0
sI29
F81.0
sI30
F83.0
sI31
F86.0
sI32
F88.0
sI33
F90.0
sI34
F93.0
sI35
F95.0
sI36
F97.0
sI37
F100.0
sI38
F103.0
sI39
F105.0
sI40
F108.0
sI41
F110.0
sI42
F112.0
sI43
F114.0
sI44
F116.0
sI45
F121.0
sI46
F123.0
sI47
F125.0
sI48
F128.0
sI49
F130.0
sI50
F132.0
sI51
F134.0
sI52
F136.0
sI53
F139.0
sI54
F144.0
sI55
F147.0
sI56
F149.0
sI57
F153.0
sI58
F155.0
sI59
F157.0
sI60
F163.0
sI61
F165.0
sI62
F167.0
sI63
F169.0
sI64
F174.0
sI65
F177.0
sI66
F179.0
sI67
F181.0
sI68
F183.0
sI69
F186.0
sI70
F188.0
sI71
F192.0
sI72
F195.0
sI73
F197.0
sI74
F199.0
sI75
F203.0
sI76
F206.0
sI77
F208.0
sI78
F210.0
sI79
F214.0
sI80
F217.0
sI81
F219.0
sI82
F221.0
sI83
F223.0
sI84
F225.0
sI85
F227.0
sI86
F230.0
sI87
F232.0
sI88
F234.0
sI89
F238.0
sI90
F240.0
sI91
F242.0
sI92
F249.0
sI93
F253.0
sI94
F257.0
sI95
F259.0
sI96
F261.0
sI97
F265.0
sI98
F271.0
sI99
F276.0
sI100
F278.0
sI101
F280.0
sI102
F282.0
sI103
F284.0
sI104
F286.0
sI105
F288.0
sI106
F291.0
sI107
F295.0
sI108
F298.0
sI109
F300.0
sI110
F302.0
sI111
F305.0
sI112
F307.0
sI113
F309.0
sI114
F312.0
sI115
F317.0
sI116
F319.0
sI117
F321.0
sI118
F323.0
sI119
F325.0
sI120
F329.0
sI121
F331.0
sI122
F335.0
sI123
F337.0
sI124
F339.0
sI125
F341.0
sI126
F343.0
sI127
F348.0
ssS'hostname'
p826
S'wireless-10-146-78-44.public.utexas.edu'
p827
sS'onsetdir'
p828
S'/Users/church/Desktop/sst/onsetlists_sst'
p829
sS'succstop'
p830
(dp831
I4
I1
sI5
I1
sI6
I1
sI18
I0
sI19
I1
sI21
I0
sI31
I0
sI32
I1
sI33
I0
sI42
I0
sI43
I0
sI44
I1
sI49
I1
sI53
I0
sI59
I1
sI69
I0
sI70
I1
sI73
I1
sI79
I0
sI80
I0
sI94
I0
sI95
I1
sI96
I1
sI98
I0
sI99
I1
sI100
I1
sI106
I0
sI108
I0
sI109
I1
sI114
I0
sI120
I0
sI127
I1
ssS'ssdtime'
p832
(dp833
I4
F0.2658958435058594
sI5
F0.3159010410308838
sI6
F0.36571311950683594
sI18
F0.4155411720275879
sI19
F0.3658008575439453
sI21
F0.4157681465148926
sI31
F0.36574292182922363
sI32
F0.31589198112487793
sI33
F0.3658640384674072
sI42
F0.3159921169281006
sI43
F0.26625895500183105
sI44
F0.21633505821228027
sI49
F0.266049861907959
sI53
F0.3162379264831543
sI59
F0.2661161422729492
sI69
F0.3159220218658447
sI70
F0.26627302169799805
sI73
F0.31591200828552246
sI79
F0.36589694023132324
sI80
F0.3159639835357666
sI94
F0.2659637928009033
sI95
F0.21625781059265137
sI96
F0.26610803604125977
sI98
F0.3160591125488281
sI99
F0.2661099433898926
sI100
F0.3160059452056885
sI106
F0.36566996574401855
sI108
F0.3159050941467285
sI109
F0.2661399841308594
sI114
F0.3159968852996826
sI120
F0.2660799026489258
sI127
F0.21607208251953125
ssS'trigger_times'
p834
(lp835
sS'simulate_response'
p836
F0.0
sS'completed'
p837
I1
sS'stimons'
p838
(dp839
I0
F0.016238927841186523
sI1
F2.0114688873291016
sI2
F5.0043439865112305
sI3
F12.004288911819458
sI4
F14.016180038452148
sI5
F16.011394023895264
sI6
F18.00662589073181
sI7
F21.016045093536377
sI8
F23.011329889297485
sI9
F25.006558895111084
sI10
F34.01835298538208
sI11
F36.01357388496399
sI12
F39.006432056427
sI13
F41.01827788352966
sI14
F43.01339888572693
sI15
F46.0063419342041
sI16
F48.018255949020386
sI17
F51.01103496551514
sI18
F56.01574492454529
sI19
F58.01097011566162
sI20
F61.00382208824158
sI21
F63.015708923339844
sI22
F66.0085620880127
sI23
F69.01804804801941
sI24
F71.01318502426147
sI25
F73.0084810256958
sI26
F75.0036609172821
sI27
F77.01556301116943
sI28
F79.0107901096344
sI29
F81.00601506233215
sI30
F83.01786589622498
sI31
F86.01071310043335
sI32
F88.00593400001526
sI33
F90.0177869796753
sI34
F93.01062202453613
sI35
F95.00575995445251
sI36
F97.01765298843384
sI37
F100.0105390548706
sI38
F103.00336194038391
sI39
F105.0151879787445
sI40
F108.00793790817261
sI41
F110.00327897071838
sI42
F112.01514196395874
sI43
F114.01027798652649
sI44
F116.00553297996521
sI45
F121.01024103164673
sI46
F123.00545811653137
sI47
F125.01731300354004
sI48
F128.01015210151672
sI49
F130.00535607337952
sI50
F132.01717805862427
sI51
F134.01245093345642
sI52
F136.0077040195465
sI53
F139.0169050693512
sI54
F144.0051679611206
sI55
F147.01463890075684
sI56
F149.00987005233765
sI57
F153.01695799827576
sI58
F155.01216197013855
sI59
F157.00738191604614
sI60
F163.00967502593994
sI61
F165.0049250125885
sI62
F167.01677203178406
sI63
F169.01203393936157
sI64
F174.01667308807373
sI65
F177.00947189331055
sI66
F179.0046980381012
sI67
F181.01655888557434
sI68
F183.0117700099945
sI69
F186.00458908081055
sI70
F188.0162959098816
sI71
F192.00688409805298
sI72
F195.01638102531433
sI73
F197.01157188415527
sI74
F199.0068380832672
sI75
F203.01386404037476
sI76
F206.0066831111908
sI77
F208.00183391571045
sI78
F210.0137860774994
sI79
F214.0041949748993
sI80
F217.013689994812
sI81
F219.0089259147644
sI82
F221.00404810905457
sI83
F223.01599097251892
sI84
F225.01116490364075
sI85
F227.0063920021057
sI86
F230.01584196090698
sI87
F232.01111102104187
sI88
F234.00621891021729
sI89
F238.0132269859314
sI90
F240.008455991745
sI91
F242.00382208824158
sI92
F249.00363206863403
sI93
F253.01065707206726
sI94
F257.0178151130676
sI95
F259.01298809051514
sI96
F261.00825905799866
sI97
F265.01516008377075
sI98
F271.01747488975525
sI99
F276.00569796562195
sI100
F278.01752495765686
sI101
F280.01264810562134
sI102
F282.00798201560974
sI103
F284.0030961036682
sI104
F286.01504588127136
sI105
F288.01013708114624
sI106
F291.0030429363251
sI107
F295.0101070404053
sI108
F298.00295400619507
sI109
F300.0147750377655
sI110
F302.0099949836731
sI111
F305.0028419494629
sI112
F307.01464796066284
sI113
F309.00983810424805
sI114
F312.0027320384979
sI115
F317.00741600990295
sI116
F319.00224709510803
sI117
F321.0144410133362
sI118
F323.00970101356506
sI119
F325.0048530101776
sI120
F329.01191902160645
sI121
F331.0072650909424
sI122
F335.01420402526855
sI123
F337.0094630718231
sI124
F339.0046410560608
sI125
F341.01649594306946
sI126
F343.0116980075836
sI127
F348.01638197898865
ssS'ssd'
p840
(dp841
I4
F0.25
sI5
F0.3
sI6
F0.35
sI18
F0.39999999999999997
sI19
F0.35
sI21
F0.39999999999999997
sI31
F0.35
sI32
F0.3
sI33
F0.35
sI42
F0.3
sI43
F0.25
sI44
F0.2
sI49
F0.25
sI53
F0.3
sI59
F0.25
sI69
F0.3
sI70
F0.25
sI73
F0.3
sI79
F0.35
sI80
F0.3
sI94
F0.25
sI95
F0.2
sI96
F0.25
sI98
F0.3
sI99
F0.25
sI100
F0.3
sI106
F0.35
sI108
F0.3
sI109
F0.25
sI114
F0.3
sI120
F0.25
sI127
F0.2
ssS'simssrt'
p842
F0.35
sS'info'
p843
(dp844
S'Simulated rt (secs)'
p845
V
p846
sS'ExpVersion'
p847
F0.2
sS'subcode'
p848
Vjess_full_real
p849
sS'Onset file'
p850
Vsst_list1.txt
p851
sS'Site'
p852
VAustin
p853
ssS'stoptrial'
p854
(dp855
I0
I0
sI1
I0
sI2
I0
sI3
I0
sI4
I1
sI5
I1
sI6
I1
sI7
I0
sI8
I0
sI9
I0
sI10
I0
sI11
I0
sI12
I0
sI13
I0
sI14
I0
sI15
I0
sI16
I0
sI17
I0
sI18
I1
sI19
I1
sI20
I0
sI21
I1
sI22
I0
sI23
I0
sI24
I0
sI25
I0
sI26
I0
sI27
I0
sI28
I0
sI29
I0
sI30
I0
sI31
I1
sI32
I1
sI33
I1
sI34
I0
sI35
I0
sI36
I0
sI37
I0
sI38
I0
sI39
I0
sI40
I0
sI41
I0
sI42
I1
sI43
I1
sI44
I1
sI45
I0
sI46
I0
sI47
I0
sI48
I0
sI49
I1
sI50
I0
sI51
I0
sI52
I0
sI53
I1
sI54
I0
sI55
I0
sI56
I0
sI57
I0
sI58
I0
sI59
I1
sI60
I0
sI61
I0
sI62
I0
sI63
I0
sI64
I0
sI65
I0
sI66
I0
sI67
I0
sI68
I0
sI69
I1
sI70
I1
sI71
I0
sI72
I0
sI73
I1
sI74
I0
sI75
I0
sI76
I0
sI77
I0
sI78
I0
sI79
I1
sI80
I1
sI81
I0
sI82
I0
sI83
I0
sI84
I0
sI85
I0
sI86
I0
sI87
I0
sI88
I0
sI89
I0
sI90
I0
sI91
I0
sI92
I0
sI93
I0
sI94
I1
sI95
I1
sI96
I1
sI97
I0
sI98
I1
sI99
I1
sI100
I1
sI101
I0
sI102
I0
sI103
I0
sI104
I0
sI105
I0
sI106
I1
sI107
I0
sI108
I1
sI109
I1
sI110
I0
sI111
I0
sI112
I0
sI113
I0
sI114
I1
sI115
I0
sI116
I0
sI117
I0
sI118
I0
sI119
I0
sI120
I1
sI121
I0
sI122
I0
sI123
I0
sI124
I0
sI125
I0
sI126
I0
sI127
I1
ssS'finish_time'
p856
F360.0
sS'cwd'
p857
S'/Users/church/Desktop/sst'
p858
s.